target datalayout = "e-m:e-p270:32:32-p271:32:32-p272:64:64-i64:64-i128:128-f80:128-n8:16:32:64-S128"
target triple = "x86_64-pc-linux-gnu"

%struct.ssl_test_ctx_test_fixture = type { ptr, ptr, ptr }
%struct.SSL_TEST_CTX = type { i32, i32, i32, i32, i32, %struct.SSL_TEST_EXTRA_CONF, %struct.SSL_TEST_EXTRA_CONF, i32, i32, i32, i32, i32, i32, i32, ptr, ptr, i32, i32, i32, i32, i32, ptr, i32, i32, i32, ptr, i32, i32, i32, i32, i32, ptr, ptr, ptr, ptr }
%struct.SSL_TEST_EXTRA_CONF = type { %struct.SSL_TEST_CLIENT_CONF, %struct.SSL_TEST_SERVER_CONF, %struct.SSL_TEST_SERVER_CONF }
%struct.SSL_TEST_CLIENT_CONF = type { i32, i32, i32, ptr, ptr, i32, ptr, ptr, ptr, i32, i32 }
%struct.SSL_TEST_SERVER_CONF = type { i32, ptr, ptr, i32, i32, ptr, ptr, i32, ptr }

@.str.14 = private unnamed_addr constant [36 x i8] c"../openssl/test/ssl_test_ctx_test.c\00", align 1
@.str.20 = private unnamed_addr constant [24 x i8] c"test_good_configuration\00", align 1
@.str.23 = private unnamed_addr constant [43 x i8] c"fixture = OPENSSL_zalloc(sizeof(*fixture))\00", align 1
@.str.24 = private unnamed_addr constant [47 x i8] c"fixture->expected_ctx = SSL_TEST_CTX_new(NULL)\00", align 1
@.str.87 = private unnamed_addr constant [13 x i8] c"ssltest_good\00", align 1
@.str.88 = private unnamed_addr constant [8 x i8] c"foo,bar\00", align 1
@.str.89 = private unnamed_addr constant [50 x i8] c"fixture->expected_ctx->extra.client.npn_protocols\00", align 1
@.str.90 = private unnamed_addr constant [4 x i8] c"baz\00", align 1
@.str.91 = private unnamed_addr constant [59 x i8] c"fixture->expected_ctx->resume_extra.server2.alpn_protocols\00", align 1

; Function Attrs: nounwind uwtable
define internal void @tear_down(ptr noundef %0) #0 {
  %2 = alloca ptr, align 8
  store ptr %0, ptr %2, align 8, !tbaa !9
  %3 = load ptr, ptr %2, align 8, !tbaa !9
  %4 = getelementptr inbounds nuw %struct.ssl_test_ctx_test_fixture, ptr %3, i32 0, i32 2
  %5 = load ptr, ptr %4, align 8, !tbaa !16
  call void @SSL_TEST_CTX_free(ptr noundef %5)
  %6 = load ptr, ptr %2, align 8, !tbaa !9
  call void @CRYPTO_free(ptr noundef %6, ptr noundef @.str.14, i32 noundef 143)
  ret void
}

; Function Attrs: nounwind uwtable
define internal ptr @set_up(ptr noundef %0) #0 {
  %2 = alloca ptr, align 8
  %3 = alloca ptr, align 8
  %4 = alloca ptr, align 8
  %5 = alloca i32, align 4
  store ptr %0, ptr %3, align 8, !tbaa !44
  call void @llvm.lifetime.start.p0(i64 8, ptr %4) #3
  %6 = call noalias ptr @CRYPTO_zalloc(i64 noundef 24, ptr noundef @.str.14, i32 noundef 114)
  store ptr %6, ptr %4, align 8, !tbaa !9
  %7 = call i32 @test_ptr(ptr noundef @.str.14, i32 noundef 114, ptr noundef @.str.23, ptr noundef %6)
  %8 = icmp ne i32 %7, 0
  br i1 %8, label %10, label %9

9:                                                ; preds = %1
  store ptr null, ptr %2, align 8
  store i32 1, ptr %5, align 4
  br label %23

10:                                               ; preds = %1
  %11 = load ptr, ptr %3, align 8, !tbaa !44
  %12 = load ptr, ptr %4, align 8, !tbaa !9
  %13 = getelementptr inbounds nuw %struct.ssl_test_ctx_test_fixture, ptr %12, i32 0, i32 0
  store ptr %11, ptr %13, align 8, !tbaa !46
  %14 = call ptr @SSL_TEST_CTX_new(ptr noundef null)
  %15 = load ptr, ptr %4, align 8, !tbaa !9
  %16 = getelementptr inbounds nuw %struct.ssl_test_ctx_test_fixture, ptr %15, i32 0, i32 2
  store ptr %14, ptr %16, align 8, !tbaa !16
  %17 = call i32 @test_ptr(ptr noundef @.str.14, i32 noundef 117, ptr noundef @.str.24, ptr noundef %14)
  %18 = icmp ne i32 %17, 0
  br i1 %18, label %21, label %19

19:                                               ; preds = %10
  %20 = load ptr, ptr %4, align 8, !tbaa !9
  call void @CRYPTO_free(ptr noundef %20, ptr noundef @.str.14, i32 noundef 118)
  store ptr null, ptr %2, align 8
  store i32 1, ptr %5, align 4
  br label %23

21:                                               ; preds = %10
  %22 = load ptr, ptr %4, align 8, !tbaa !9
  store ptr %22, ptr %2, align 8
  store i32 1, ptr %5, align 4
  br label %23

23:                                               ; preds = %21, %19, %9
  call void @llvm.lifetime.end.p0(i64 8, ptr %4) #3
  %24 = load ptr, ptr %2, align 8
  ret ptr %24
}

; Function Attrs: nounwind uwtable
define internal i32 @test_good_configuration() #0 {
  %1 = alloca i32, align 4
  %2 = alloca ptr, align 8
  %3 = alloca i32, align 4
  %4 = alloca i32, align 4
  call void @llvm.lifetime.start.p0(i64 8, ptr %2) #3
  %5 = call ptr @set_up(ptr noundef @.str.20)
  store ptr %5, ptr %2, align 8, !tbaa !9
  call void @llvm.lifetime.start.p0(i64 4, ptr %3) #3
  store i32 0, ptr %3, align 4, !tbaa !11
  %6 = load ptr, ptr %2, align 8, !tbaa !9
  %7 = icmp eq ptr %6, null
  br i1 %7, label %8, label %9

8:                                                ; preds = %0
  store i32 0, ptr %1, align 4
  store i32 1, ptr %4, align 4
  br label %146

9:                                                ; preds = %0
  %10 = load ptr, ptr %2, align 8, !tbaa !9
  %11 = getelementptr inbounds nuw %struct.ssl_test_ctx_test_fixture, ptr %10, i32 0, i32 1
  store ptr @.str.87, ptr %11, align 8, !tbaa !13
  %12 = load ptr, ptr %2, align 8, !tbaa !9
  %13 = getelementptr inbounds nuw %struct.ssl_test_ctx_test_fixture, ptr %12, i32 0, i32 2
  %14 = load ptr, ptr %13, align 8, !tbaa !16
  %15 = getelementptr inbounds nuw %struct.SSL_TEST_CTX, ptr %14, i32 0, i32 0
  store i32 1, ptr %15, align 8, !tbaa !24
  %16 = load ptr, ptr %2, align 8, !tbaa !9
  %17 = getelementptr inbounds nuw %struct.ssl_test_ctx_test_fixture, ptr %16, i32 0, i32 2
  %18 = load ptr, ptr %17, align 8, !tbaa !16
  %19 = getelementptr inbounds nuw %struct.SSL_TEST_CTX, ptr %18, i32 0, i32 1
  store i32 1, ptr %19, align 4, !tbaa !25
  %20 = load ptr, ptr %2, align 8, !tbaa !9
  %21 = getelementptr inbounds nuw %struct.ssl_test_ctx_test_fixture, ptr %20, i32 0, i32 2
  %22 = load ptr, ptr %21, align 8, !tbaa !16
  %23 = getelementptr inbounds nuw %struct.SSL_TEST_CTX, ptr %22, i32 0, i32 2
  store i32 1024, ptr %23, align 8, !tbaa !26
  %24 = load ptr, ptr %2, align 8, !tbaa !9
  %25 = getelementptr inbounds nuw %struct.ssl_test_ctx_test_fixture, ptr %24, i32 0, i32 2
  %26 = load ptr, ptr %25, align 8, !tbaa !16
  %27 = getelementptr inbounds nuw %struct.SSL_TEST_CTX, ptr %26, i32 0, i32 3
  store i32 2048, ptr %27, align 4, !tbaa !27
  %28 = load ptr, ptr %2, align 8, !tbaa !9
  %29 = getelementptr inbounds nuw %struct.ssl_test_ctx_test_fixture, ptr %28, i32 0, i32 2
  %30 = load ptr, ptr %29, align 8, !tbaa !16
  %31 = getelementptr inbounds nuw %struct.SSL_TEST_CTX, ptr %30, i32 0, i32 7
  store i32 1, ptr %31, align 8, !tbaa !17
  %32 = load ptr, ptr %2, align 8, !tbaa !9
  %33 = getelementptr inbounds nuw %struct.ssl_test_ctx_test_fixture, ptr %32, i32 0, i32 2
  %34 = load ptr, ptr %33, align 8, !tbaa !16
  %35 = getelementptr inbounds nuw %struct.SSL_TEST_CTX, ptr %34, i32 0, i32 8
  store i32 48, ptr %35, align 4, !tbaa !28
  %36 = load ptr, ptr %2, align 8, !tbaa !9
  %37 = getelementptr inbounds nuw %struct.ssl_test_ctx_test_fixture, ptr %36, i32 0, i32 2
  %38 = load ptr, ptr %37, align 8, !tbaa !16
  %39 = getelementptr inbounds nuw %struct.SSL_TEST_CTX, ptr %38, i32 0, i32 9
  store i32 0, ptr %39, align 8, !tbaa !29
  %40 = load ptr, ptr %2, align 8, !tbaa !9
  %41 = getelementptr inbounds nuw %struct.ssl_test_ctx_test_fixture, ptr %40, i32 0, i32 2
  %42 = load ptr, ptr %41, align 8, !tbaa !16
  %43 = getelementptr inbounds nuw %struct.SSL_TEST_CTX, ptr %42, i32 0, i32 10
  store i32 770, ptr %43, align 4, !tbaa !30
  %44 = load ptr, ptr %2, align 8, !tbaa !9
  %45 = getelementptr inbounds nuw %struct.ssl_test_ctx_test_fixture, ptr %44, i32 0, i32 2
  %46 = load ptr, ptr %45, align 8, !tbaa !16
  %47 = getelementptr inbounds nuw %struct.SSL_TEST_CTX, ptr %46, i32 0, i32 11
  store i32 2, ptr %47, align 8, !tbaa !31
  %48 = load ptr, ptr %2, align 8, !tbaa !9
  %49 = getelementptr inbounds nuw %struct.ssl_test_ctx_test_fixture, ptr %48, i32 0, i32 2
  %50 = load ptr, ptr %49, align 8, !tbaa !16
  %51 = getelementptr inbounds nuw %struct.SSL_TEST_CTX, ptr %50, i32 0, i32 12
  store i32 1, ptr %51, align 4, !tbaa !32
  %52 = load ptr, ptr %2, align 8, !tbaa !9
  %53 = getelementptr inbounds nuw %struct.ssl_test_ctx_test_fixture, ptr %52, i32 0, i32 2
  %54 = load ptr, ptr %53, align 8, !tbaa !16
  %55 = getelementptr inbounds nuw %struct.SSL_TEST_CTX, ptr %54, i32 0, i32 13
  store i32 0, ptr %55, align 8, !tbaa !33
  %56 = load ptr, ptr %2, align 8, !tbaa !9
  %57 = getelementptr inbounds nuw %struct.ssl_test_ctx_test_fixture, ptr %56, i32 0, i32 2
  %58 = load ptr, ptr %57, align 8, !tbaa !16
  %59 = getelementptr inbounds nuw %struct.SSL_TEST_CTX, ptr %58, i32 0, i32 30
  store i32 0, ptr %59, align 8, !tbaa !34
  %60 = load ptr, ptr %2, align 8, !tbaa !9
  %61 = getelementptr inbounds nuw %struct.ssl_test_ctx_test_fixture, ptr %60, i32 0, i32 2
  %62 = load ptr, ptr %61, align 8, !tbaa !16
  %63 = getelementptr inbounds nuw %struct.SSL_TEST_CTX, ptr %62, i32 0, i32 16
  store i32 1, ptr %63, align 8, !tbaa !35
  %64 = load ptr, ptr %2, align 8, !tbaa !9
  %65 = getelementptr inbounds nuw %struct.ssl_test_ctx_test_fixture, ptr %64, i32 0, i32 2
  %66 = load ptr, ptr %65, align 8, !tbaa !16
  %67 = getelementptr inbounds nuw %struct.SSL_TEST_CTX, ptr %66, i32 0, i32 5
  %68 = getelementptr inbounds nuw %struct.SSL_TEST_EXTRA_CONF, ptr %67, i32 0, i32 0
  %69 = getelementptr inbounds nuw %struct.SSL_TEST_CLIENT_CONF, ptr %68, i32 0, i32 0
  store i32 3, ptr %69, align 8, !tbaa !36
  %70 = load ptr, ptr %2, align 8, !tbaa !9
  %71 = getelementptr inbounds nuw %struct.ssl_test_ctx_test_fixture, ptr %70, i32 0, i32 2
  %72 = load ptr, ptr %71, align 8, !tbaa !16
  %73 = getelementptr inbounds nuw %struct.SSL_TEST_CTX, ptr %72, i32 0, i32 5
  %74 = getelementptr inbounds nuw %struct.SSL_TEST_EXTRA_CONF, ptr %73, i32 0, i32 0
  %75 = getelementptr inbounds nuw %struct.SSL_TEST_CLIENT_CONF, ptr %74, i32 0, i32 1
  store i32 2, ptr %75, align 4, !tbaa !37
  %76 = call noalias ptr @CRYPTO_strdup(ptr noundef @.str.88, ptr noundef @.str.14, i32 noundef 183)
  %77 = load ptr, ptr %2, align 8, !tbaa !9
  %78 = getelementptr inbounds nuw %struct.ssl_test_ctx_test_fixture, ptr %77, i32 0, i32 2
  %79 = load ptr, ptr %78, align 8, !tbaa !16
  %80 = getelementptr inbounds nuw %struct.SSL_TEST_CTX, ptr %79, i32 0, i32 5
  %81 = getelementptr inbounds nuw %struct.SSL_TEST_EXTRA_CONF, ptr %80, i32 0, i32 0
  %82 = getelementptr inbounds nuw %struct.SSL_TEST_CLIENT_CONF, ptr %81, i32 0, i32 3
  store ptr %76, ptr %82, align 8, !tbaa !38
  %83 = load ptr, ptr %2, align 8, !tbaa !9
  %84 = getelementptr inbounds nuw %struct.ssl_test_ctx_test_fixture, ptr %83, i32 0, i32 2
  %85 = load ptr, ptr %84, align 8, !tbaa !16
  %86 = getelementptr inbounds nuw %struct.SSL_TEST_CTX, ptr %85, i32 0, i32 5
  %87 = getelementptr inbounds nuw %struct.SSL_TEST_EXTRA_CONF, ptr %86, i32 0, i32 0
  %88 = getelementptr inbounds nuw %struct.SSL_TEST_CLIENT_CONF, ptr %87, i32 0, i32 3
  %89 = load ptr, ptr %88, align 8, !tbaa !38
  %90 = call i32 @test_ptr(ptr noundef @.str.14, i32 noundef 184, ptr noundef @.str.89, ptr noundef %89)
  %91 = icmp ne i32 %90, 0
  br i1 %91, label %93, label %92

92:                                               ; preds = %9
  br label %144

93:                                               ; preds = %9
  %94 = load ptr, ptr %2, align 8, !tbaa !9
  %95 = getelementptr inbounds nuw %struct.ssl_test_ctx_test_fixture, ptr %94, i32 0, i32 2
  %96 = load ptr, ptr %95, align 8, !tbaa !16
  %97 = getelementptr inbounds nuw %struct.SSL_TEST_CTX, ptr %96, i32 0, i32 5
  %98 = getelementptr inbounds nuw %struct.SSL_TEST_EXTRA_CONF, ptr %97, i32 0, i32 0
  %99 = getelementptr inbounds nuw %struct.SSL_TEST_CLIENT_CONF, ptr %98, i32 0, i32 2
  store i32 0, ptr %99, align 8, !tbaa !39
  %100 = load ptr, ptr %2, align 8, !tbaa !9
  %101 = getelementptr inbounds nuw %struct.ssl_test_ctx_test_fixture, ptr %100, i32 0, i32 2
  %102 = load ptr, ptr %101, align 8, !tbaa !16
  %103 = getelementptr inbounds nuw %struct.SSL_TEST_CTX, ptr %102, i32 0, i32 5
  %104 = getelementptr inbounds nuw %struct.SSL_TEST_EXTRA_CONF, ptr %103, i32 0, i32 1
  %105 = getelementptr inbounds nuw %struct.SSL_TEST_SERVER_CONF, ptr %104, i32 0, i32 0
  store i32 1, ptr %105, align 8, !tbaa !40
  %106 = load ptr, ptr %2, align 8, !tbaa !9
  %107 = getelementptr inbounds nuw %struct.ssl_test_ctx_test_fixture, ptr %106, i32 0, i32 2
  %108 = load ptr, ptr %107, align 8, !tbaa !16
  %109 = getelementptr inbounds nuw %struct.SSL_TEST_CTX, ptr %108, i32 0, i32 5
  %110 = getelementptr inbounds nuw %struct.SSL_TEST_EXTRA_CONF, ptr %109, i32 0, i32 1
  %111 = getelementptr inbounds nuw %struct.SSL_TEST_SERVER_CONF, ptr %110, i32 0, i32 3
  store i32 1, ptr %111, align 8, !tbaa !41
  %112 = call noalias ptr @CRYPTO_strdup(ptr noundef @.str.90, ptr noundef @.str.14, i32 noundef 193)
  %113 = load ptr, ptr %2, align 8, !tbaa !9
  %114 = getelementptr inbounds nuw %struct.ssl_test_ctx_test_fixture, ptr %113, i32 0, i32 2
  %115 = load ptr, ptr %114, align 8, !tbaa !16
  %116 = getelementptr inbounds nuw %struct.SSL_TEST_CTX, ptr %115, i32 0, i32 6
  %117 = getelementptr inbounds nuw %struct.SSL_TEST_EXTRA_CONF, ptr %116, i32 0, i32 2
  %118 = getelementptr inbounds nuw %struct.SSL_TEST_SERVER_CONF, ptr %117, i32 0, i32 2
  store ptr %112, ptr %118, align 8, !tbaa !42
  %119 = load ptr, ptr %2, align 8, !tbaa !9
  %120 = getelementptr inbounds nuw %struct.ssl_test_ctx_test_fixture, ptr %119, i32 0, i32 2
  %121 = load ptr, ptr %120, align 8, !tbaa !16
  %122 = getelementptr inbounds nuw %struct.SSL_TEST_CTX, ptr %121, i32 0, i32 6
  %123 = getelementptr inbounds nuw %struct.SSL_TEST_EXTRA_CONF, ptr %122, i32 0, i32 2
  %124 = getelementptr inbounds nuw %struct.SSL_TEST_SERVER_CONF, ptr %123, i32 0, i32 2
  %125 = load ptr, ptr %124, align 8, !tbaa !42
  %126 = call i32 @test_ptr(ptr noundef @.str.14, i32 noundef 194, ptr noundef @.str.91, ptr noundef %125)
  %127 = icmp ne i32 %126, 0
  br i1 %127, label %129, label %128

128:                                              ; preds = %93
  br label %144

129:                                              ; preds = %93
  %130 = load ptr, ptr %2, align 8, !tbaa !9
  %131 = getelementptr inbounds nuw %struct.ssl_test_ctx_test_fixture, ptr %130, i32 0, i32 2
  %132 = load ptr, ptr %131, align 8, !tbaa !16
  %133 = getelementptr inbounds nuw %struct.SSL_TEST_CTX, ptr %132, i32 0, i32 6
  %134 = getelementptr inbounds nuw %struct.SSL_TEST_EXTRA_CONF, ptr %133, i32 0, i32 0
  %135 = getelementptr inbounds nuw %struct.SSL_TEST_CLIENT_CONF, ptr %134, i32 0, i32 5
  store i32 2, ptr %135, align 8, !tbaa !43
  %136 = load ptr, ptr %2, align 8, !tbaa !9
  %137 = icmp ne ptr %136, null
  br i1 %137, label %138, label %142

138:                                              ; preds = %129
  %139 = load ptr, ptr %2, align 8, !tbaa !9
  %140 = call i32 @execute_test(ptr noundef %139)
  store i32 %140, ptr %3, align 4, !tbaa !11
  %141 = load ptr, ptr %2, align 8, !tbaa !9
  call void @tear_down(ptr noundef %141)
  br label %142

142:                                              ; preds = %138, %129
  %143 = load i32, ptr %3, align 4, !tbaa !11
  store i32 %143, ptr %1, align 4
  store i32 1, ptr %4, align 4
  br label %146

144:                                              ; preds = %128, %92
  %145 = load ptr, ptr %2, align 8, !tbaa !9
  call void @tear_down(ptr noundef %145)
  store i32 0, ptr %1, align 4
  store i32 1, ptr %4, align 4
  br label %146

146:                                              ; preds = %144, %142, %8
  call void @llvm.lifetime.end.p0(i64 4, ptr %3) #3
  call void @llvm.lifetime.end.p0(i64 8, ptr %2) #3
  %147 = load i32, ptr %1, align 4
  ret i32 %147
}