; Function Attrs: nounwind uwtable
define internal range(i32 0, 2) i32 @test_good_configuration() #1 {
  %1 = tail call noalias ptr @CRYPTO_zalloc(i64 noundef 24, ptr noundef nonnull @.str.14, i32 noundef 114) #3
  %2 = tail call i32 @test_ptr(ptr noundef nonnull @.str.14, i32 noundef 114, ptr noundef nonnull @.str.23, ptr noundef %1) #3
  %.not.i = icmp eq i32 %2, 0
  br i1 %.not.i, label %set_up.exit.thread, label %3

3:                                                ; preds = %0
  store ptr @.str.20, ptr %1, align 8, !tbaa !9
  %4 = tail call ptr @SSL_TEST_CTX_new(ptr noundef null) #3
  %5 = getelementptr inbounds nuw i8, ptr %1, i64 16
  store ptr %4, ptr %5, align 8, !tbaa !12
  %6 = tail call i32 @test_ptr(ptr noundef nonnull @.str.14, i32 noundef 117, ptr noundef nonnull @.str.24, ptr noundef %4) #3
  %.not6.i = icmp eq i32 %6, 0
  br i1 %.not6.i, label %set_up.exit.thread.sink.split, label %set_up.exit

set_up.exit:                                      ; preds = %3
  %7 = getelementptr inbounds nuw i8, ptr %1, i64 8
  store ptr @.str.87, ptr %7, align 8, !tbaa !13
  %8 = load ptr, ptr %5, align 8, !tbaa !12
  store i32 1, ptr %8, align 8, !tbaa !22
  %9 = getelementptr inbounds nuw i8, ptr %8, i64 4
  store i32 1, ptr %9, align 4, !tbaa !23
  %10 = getelementptr inbounds nuw i8, ptr %8, i64 8
  store i32 1024, ptr %10, align 8, !tbaa !24
  %11 = getelementptr inbounds nuw i8, ptr %8, i64 12
  store i32 2048, ptr %11, align 4, !tbaa !25
  %12 = getelementptr inbounds nuw i8, ptr %8, i64 424
  store i32 1, ptr %12, align 8, !tbaa !14
  %13 = getelementptr inbounds nuw i8, ptr %8, i64 428
  store i32 48, ptr %13, align 4, !tbaa !26
  %14 = getelementptr inbounds nuw i8, ptr %8, i64 432
  store i32 0, ptr %14, align 8, !tbaa !27
  %15 = getelementptr inbounds nuw i8, ptr %8, i64 436
  store i32 770, ptr %15, align 4, !tbaa !28
  %16 = getelementptr inbounds nuw i8, ptr %8, i64 440
  store i32 2, ptr %16, align 8, !tbaa !29
  %17 = getelementptr inbounds nuw i8, ptr %8, i64 444
  store i32 1, ptr %17, align 4, !tbaa !30
  %18 = getelementptr inbounds nuw i8, ptr %8, i64 448
  store i32 0, ptr %18, align 8, !tbaa !31
  %19 = getelementptr inbounds nuw i8, ptr %8, i64 544
  store i32 0, ptr %19, align 8, !tbaa !32
  %20 = getelementptr inbounds nuw i8, ptr %8, i64 472
  store i32 1, ptr %20, align 8, !tbaa !33
  %21 = getelementptr inbounds nuw i8, ptr %8, i64 24
  store i32 3, ptr %21, align 8, !tbaa !34
  %22 = getelementptr inbounds nuw i8, ptr %8, i64 28
  store i32 2, ptr %22, align 4, !tbaa !35
  %23 = tail call noalias ptr @CRYPTO_strdup(ptr noundef nonnull @.str.88, ptr noundef nonnull @.str.14, i32 noundef 183) #3
  %24 = load ptr, ptr %5, align 8, !tbaa !12
  %25 = getelementptr inbounds nuw i8, ptr %24, i64 40
  store ptr %23, ptr %25, align 8, !tbaa !36
  %26 = tail call i32 @test_ptr(ptr noundef nonnull @.str.14, i32 noundef 184, ptr noundef nonnull @.str.89, ptr noundef %23) #3
  %.not = icmp eq i32 %26, 0
  br i1 %.not, label %set_up.exit.thread.sink.split.sink.split, label %27

27:                                               ; preds = %set_up.exit
  %28 = load ptr, ptr %5, align 8, !tbaa !12
  %29 = getelementptr inbounds nuw i8, ptr %28, i64 32
  store i32 0, ptr %29, align 8, !tbaa !37
  %30 = getelementptr inbounds nuw i8, ptr %28, i64 96
  store i32 1, ptr %30, align 8, !tbaa !38
  %31 = getelementptr inbounds nuw i8, ptr %28, i64 120
  store i32 1, ptr %31, align 8, !tbaa !39
  %32 = tail call noalias ptr @CRYPTO_strdup(ptr noundef nonnull @.str.90, ptr noundef nonnull @.str.14, i32 noundef 193) #3
  %33 = load ptr, ptr %5, align 8, !tbaa !12
  %34 = getelementptr inbounds nuw i8, ptr %33, i64 376
  store ptr %32, ptr %34, align 8, !tbaa !40
  %35 = tail call i32 @test_ptr(ptr noundef nonnull @.str.14, i32 noundef 194, ptr noundef nonnull @.str.91, ptr noundef %32) #3
  %.not32 = icmp eq i32 %35, 0
  br i1 %.not32, label %set_up.exit.thread.sink.split.sink.split, label %36

36:                                               ; preds = %27
  %37 = load ptr, ptr %5, align 8, !tbaa !12
  %38 = getelementptr inbounds nuw i8, ptr %37, i64 256
  store i32 2, ptr %38, align 8, !tbaa !41
  %39 = tail call fastcc i32 @execute_test(ptr noundef %1)
  br label %set_up.exit.thread.sink.split.sink.split

set_up.exit.thread.sink.split.sink.split:         ; preds = %set_up.exit, %27, %36
  %.030.ph.ph = phi i32 [ %39, %36 ], [ 0, %27 ], [ 0, %set_up.exit ]
  %40 = load ptr, ptr %5, align 8, !tbaa !12
  tail call void @SSL_TEST_CTX_free(ptr noundef %40) #3
  br label %set_up.exit.thread.sink.split

set_up.exit.thread.sink.split:                    ; preds = %set_up.exit.thread.sink.split.sink.split, %3
  %.sink = phi i32 [ 118, %3 ], [ 143, %set_up.exit.thread.sink.split.sink.split ]
  %.030.ph = phi i32 [ 0, %3 ], [ %.030.ph.ph, %set_up.exit.thread.sink.split.sink.split ]
  tail call void @CRYPTO_free(ptr noundef nonnull %1, ptr noundef nonnull @.str.14, i32 noundef %.sink) #3
  br label %set_up.exit.thread

set_up.exit.thread:                               ; preds = %set_up.exit.thread.sink.split, %0
  %.030 = phi i32 [ 0, %0 ], [ %.030.ph, %set_up.exit.thread.sink.split ]
  ret i32 %.030
}